target datalayout = "e-m:e-p270:32:32-p271:32:32-p272:64:64-i64:64-i128:128-f80:128-n8:16:32:64-S128"
target triple = "x86_64-pc-linux-gnu"

%struct._archiveHandle = type { %struct.Archive, i32, ptr, ptr, i64, i64, i32, %struct.sqlparseInfo, i64, i32, ptr, i64, i64, i64, ptr, ptr, ptr, ptr, ptr, ptr, ptr, ptr, ptr, ptr, ptr, ptr, ptr, ptr, ptr, ptr, ptr, ptr, ptr, ptr, ptr, ptr, ptr, ptr, ptr, ptr, ptr, ptr, ptr, ptr, i32, i32, i8, i32, i8, i32, ptr, ptr, ptr, ptr, i32, i32, ptr, ptr, ptr, %struct.pg_compress_specification, i8, i32, i32, ptr, ptr, ptr, ptr, ptr, i32, ptr, i64, i64, i32, i32, i32, i32, ptr, ptr }
%struct.Archive = type { ptr, ptr, i32, ptr, i32, i8, i32, i32, i32, ptr, i32, i8, ptr, ptr, i8, i32, ptr }
%struct.sqlparseInfo = type { i32, i8, ptr }
%struct.pg_compress_specification = type { i32, i32, i32, i32, i8, ptr }
%struct.lclContext = type { i32, i64, ptr, ptr, i64, i64, ptr, i32, ptr }
%struct._tocEntry = type { ptr, ptr, %struct.CatalogId, i32, i32, i8, ptr, ptr, ptr, ptr, i8, ptr, ptr, ptr, ptr, ptr, ptr, i32, ptr, ptr, ptr, i64, i32, i8, ptr, ptr, i32, ptr, i32, ptr, i32 }
%struct.CatalogId = type { i32, i32 }
%struct.lclTocEntry = type { ptr, ptr }

@.str.4 = private unnamed_addr constant [51 x i8] c"compression is not supported by tar archive format\00", align 1
@.str.40 = private unnamed_addr constant [12 x i8] c"blob_%u.dat\00", align 1
@.str.46 = private unnamed_addr constant [34 x i8] c"invalid OID for large object (%u)\00", align 1
@.str.47 = private unnamed_addr constant [7 x i8] c"%u %s\0A\00", align 1

; Function Attrs: nounwind uwtable
define internal void @_StartLO(ptr noundef %0, ptr noundef %1, i32 noundef %2) #0 {
  %4 = alloca ptr, align 8
  %5 = alloca ptr, align 8
  %6 = alloca i32, align 4
  %7 = alloca ptr, align 8
  %8 = alloca ptr, align 8
  %9 = alloca [255 x i8], align 16
  store ptr %0, ptr %4, align 8
  store ptr %1, ptr %5, align 8
  store i32 %2, ptr %6, align 4
  call void @llvm.lifetime.start.p0(i64 8, ptr %7) #12
  %10 = load ptr, ptr %4, align 8
  %11 = getelementptr inbounds nuw %struct._archiveHandle, ptr %10, i32 0, i32 63
  %12 = load ptr, ptr %11, align 8
  store ptr %12, ptr %7, align 8
  call void @llvm.lifetime.start.p0(i64 8, ptr %8) #12
  %13 = load ptr, ptr %5, align 8
  %14 = getelementptr inbounds nuw %struct._tocEntry, ptr %13, i32 0, i32 20
  %15 = load ptr, ptr %14, align 8
  store ptr %15, ptr %8, align 8
  call void @llvm.lifetime.start.p0(i64 255, ptr %9) #12
  %16 = load i32, ptr %6, align 4
  %17 = icmp eq i32 %16, 0
  br i1 %17, label %18, label %23

18:                                               ; preds = %3
  br label %19

19:                                               ; preds = %18
  %20 = load i32, ptr %6, align 4
  call void (i32, i32, ptr, ...) @pg_log_generic(i32 noundef 4, i32 noundef 0, ptr noundef @.str.46, i32 noundef %20)
  call void @exit_nicely(i32 noundef 1) #14
  unreachable

21:                                               ; No predecessors!
  br label %22

22:                                               ; preds = %21
  br label %23

23:                                               ; preds = %22, %3
  %24 = load ptr, ptr %4, align 8
  %25 = getelementptr inbounds nuw %struct._archiveHandle, ptr %24, i32 0, i32 59
  %26 = getelementptr inbounds nuw %struct.pg_compress_specification, ptr %25, i32 0, i32 0
  %27 = load i32, ptr %26, align 8
  %28 = icmp ne i32 %27, 0
  br i1 %28, label %29, label %33

29:                                               ; preds = %23
  br label %30

30:                                               ; preds = %29
  call void (i32, i32, ptr, ...) @pg_log_generic(i32 noundef 4, i32 noundef 0, ptr noundef @.str.4)
  call void @exit_nicely(i32 noundef 1) #14
  unreachable

31:                                               ; No predecessors!
  br label %32

32:                                               ; preds = %31
  br label %33

33:                                               ; preds = %32, %23
  %34 = getelementptr inbounds [255 x i8], ptr %9, i64 0, i64 0
  %35 = load i32, ptr %6, align 4
  %36 = call i32 (ptr, ptr, ...) @pg_sprintf(ptr noundef %34, ptr noundef @.str.40, i32 noundef %35)
  %37 = load ptr, ptr %7, align 8
  %38 = getelementptr inbounds nuw %struct.lclContext, ptr %37, i32 0, i32 2
  %39 = load ptr, ptr %38, align 8
  %40 = load i32, ptr %6, align 4
  %41 = getelementptr inbounds [255 x i8], ptr %9, i64 0, i64 0
  %42 = call i32 (ptr, ptr, ...) @tarPrintf(ptr noundef %39, ptr noundef @.str.47, i32 noundef %40, ptr noundef %41)
  %43 = load ptr, ptr %4, align 8
  %44 = getelementptr inbounds [255 x i8], ptr %9, i64 0, i64 0
  %45 = call ptr @tarOpen(ptr noundef %43, ptr noundef %44, i8 noundef signext 119)
  %46 = load ptr, ptr %8, align 8
  %47 = getelementptr inbounds nuw %struct.lclTocEntry, ptr %46, i32 0, i32 0
  store ptr %45, ptr %47, align 8
  call void @llvm.lifetime.end.p0(i64 255, ptr %9) #12
  call void @llvm.lifetime.end.p0(i64 8, ptr %8) #12
  call void @llvm.lifetime.end.p0(i64 8, ptr %7) #12
  ret void
}