; Function Attrs: nounwind uwtable
define internal void @_StartLO(ptr noundef %0, ptr noundef readonly captures(none) %1, i32 noundef %2) #0 {
  %4 = alloca [255 x i8], align 16
  %5 = getelementptr inbounds nuw i8, ptr %0, i64 592
  %6 = load ptr, ptr %5, align 8
  %7 = getelementptr inbounds nuw i8, ptr %1, i64 152
  %8 = load ptr, ptr %7, align 8
  call void @llvm.lifetime.start.p0(i64 255, ptr nonnull %4) #17
  %9 = icmp eq i32 %2, 0
  br i1 %9, label %10, label %11

10:                                               ; preds = %3
  tail call void (i32, i32, ptr, ...) @pg_log_generic(i32 noundef 4, i32 noundef 0, ptr noundef nonnull @.str.46, i32 noundef 0) #17
  tail call void @exit_nicely(i32 noundef 1) #18
  unreachable

11:                                               ; preds = %3
  %12 = getelementptr inbounds nuw i8, ptr %0, i64 544
  %13 = load i32, ptr %12, align 8
  %.not = icmp eq i32 %13, 0
  br i1 %.not, label %15, label %14

14:                                               ; preds = %11
  tail call void (i32, i32, ptr, ...) @pg_log_generic(i32 noundef 4, i32 noundef 0, ptr noundef nonnull @.str.4) #17
  tail call void @exit_nicely(i32 noundef 1) #18
  unreachable

15:                                               ; preds = %11
  %16 = call i32 (ptr, ptr, ...) @pg_sprintf(ptr noundef nonnull %4, ptr noundef nonnull @.str.40, i32 noundef %2) #17
  %17 = getelementptr inbounds nuw i8, ptr %6, i64 16
  %18 = load ptr, ptr %17, align 8
  call void (ptr, ptr, ...) @tarPrintf(ptr noundef %18, ptr noundef nonnull @.str.47, i32 noundef %2, ptr noundef nonnull %4)
  %19 = call fastcc ptr @tarOpen(ptr noundef nonnull %0, ptr noundef nonnull %4, i8 noundef signext 119)
  store ptr %19, ptr %8, align 8
  call void @llvm.lifetime.end.p0(i64 255, ptr nonnull %4) #17
  ret void
}